(dp0
S'192.168.1.18'
p1
(lp2
cbitarray
bitarray
p3
(S'\x06\xed\x00'
p4
S'big'
p5
tp6
Rp7
(dp8
baF10.0
aF7.0
asS'127.0.0.1'
p9
(lp10
g3
(S'\x06\xd4\xc0'
p11
S'big'
p12
tp13
Rp14
(dp15
baF10.0
aF7.0
asS'192.168.1.8'
p16
(lp17
g3
(S'\x06\xed\x00'
p18
S'big'
p19
tp20
Rp21
(dp22
baF10.0
aF7.0
as.